; Function Attrs: mustprogress nofree norecurse nosync nounwind willreturn memory(read, inaccessiblemem: none) uwtable
define hidden noundef nonnull align 8 dereferenceable(96) ptr @_ZNK15model_evaluator9get_modelEv(ptr nocapture noundef nonnull readonly align 8 dereferenceable(8) %this) local_unnamed_addr #4 align 2 {
entry:
  %0 = load ptr, ptr %this, align 8
  %m_cfg.i = getelementptr inbounds i8, ptr %0, i64 144
  %1 = load ptr, ptr %m_cfg.i, align 8
  %m_model = getelementptr inbounds i8, ptr %1, i64 8
  %2 = load ptr, ptr %m_model, align 8
  ret ptr %2
}